; Function Attrs: nounwind uwtable
define dso_local zeroext i1 @Curl_pp_moredata(ptr noundef %0) local_unnamed_addr #0 {
  %2 = getelementptr inbounds nuw i8, ptr %0, i64 24
  %3 = load i64, ptr %2, align 8, !tbaa !84
  %.not = icmp eq i64 %3, 0
  br i1 %.not, label %4, label %10

4:                                                ; preds = %1
  %5 = getelementptr inbounds nuw i8, ptr %0, i64 96
  %6 = tail call i64 @Curl_dyn_len(ptr noundef nonnull %5) #10
  %7 = getelementptr inbounds nuw i8, ptr %0, i64 136
  %8 = load i64, ptr %7, align 8, !tbaa !91
  %9 = icmp ugt i64 %6, %8
  br label %10

10:                                               ; preds = %4, %1
  %11 = phi i1 [ false, %1 ], [ %9, %4 ]
  ret i1 %11
}